; Function Attrs: mustprogress uwtable
define void @_ZNK9grpc_core11ChannelArgs6RemoveESt17basic_string_viewIcSt11char_traitsIcEE(ptr dead_on_unwind noalias writable sret(%"class.grpc_core::ChannelArgs") align 8 %0, ptr noundef nonnull align 8 dereferenceable(8) %1, i64 %2, ptr %3) local_unnamed_addr #9 align 2 personality ptr @__gxx_personality_v0 {
  %5 = alloca %"class.std::basic_string_view", align 8
  %6 = alloca %"class.grpc_core::AVL", align 8
  store i64 %2, ptr %5, align 8
  %7 = getelementptr inbounds nuw i8, ptr %5, i64 8
  store ptr %3, ptr %7, align 8
  %8 = call noundef ptr @_ZNK9grpc_core3AVLINS_21RefCountedStringValueENS_11ChannelArgs5ValueEE6LookupISt17basic_string_viewIcSt11char_traitsIcEEEEPKS3_RKT_(ptr noundef nonnull align 8 dereferenceable(8) %1, ptr noundef nonnull align 8 dereferenceable(16) %5)
  %9 = icmp eq ptr %8, null
  br i1 %9, label %10, label %11

10:                                               ; preds = %4
  call void @_ZN9grpc_core11ChannelArgsC1ERKS0_(ptr noundef nonnull align 8 dereferenceable(8) %0, ptr noundef nonnull align 8 dereferenceable(8) %1)
  br label %_ZN9grpc_core3AVLINS_21RefCountedStringValueENS_11ChannelArgs5ValueEED2Ev.exit

11:                                               ; preds = %4
  call void @_ZN9grpc_core3AVLINS_21RefCountedStringValueENS_11ChannelArgs5ValueEE9RemoveKeyISt17basic_string_viewIcSt11char_traitsIcEEEENS_13RefCountedPtrINS4_4NodeEEERKSC_RKT_(ptr dead_on_unwind nonnull writable sret(%"class.grpc_core::RefCountedPtr") align 8 %6, ptr noundef nonnull align 8 dereferenceable(8) %1, ptr noundef nonnull align 8 dereferenceable(16) %5)
  invoke void @_ZN9grpc_core11ChannelArgsC1ENS_3AVLINS_21RefCountedStringValueENS0_5ValueEEE(ptr noundef nonnull align 8 dereferenceable(8) %0, ptr noundef nonnull %6)
          to label %12 unwind label %18

12:                                               ; preds = %11
  %13 = load ptr, ptr %6, align 8, !tbaa !21
  %.not.i.i = icmp eq ptr %13, null
  br i1 %.not.i.i, label %_ZN9grpc_core3AVLINS_21RefCountedStringValueENS_11ChannelArgs5ValueEED2Ev.exit, label %14

14:                                               ; preds = %12
  %15 = atomicrmw sub ptr %13, i64 1 acq_rel, align 8
  %16 = icmp eq i64 %15, 1
  br i1 %16, label %17, label %_ZN9grpc_core3AVLINS_21RefCountedStringValueENS_11ChannelArgs5ValueEED2Ev.exit, !prof !24

17:                                               ; preds = %14
  call void @_ZNK9grpc_core11UnrefDeleteclIKNS_3AVLINS_21RefCountedStringValueENS_11ChannelArgs5ValueEE4NodeEEEvPT_(ptr noundef nonnull align 8 dereferenceable(8) %13, ptr noundef nonnull align 8 dereferenceable(8) %13)
  br label %_ZN9grpc_core3AVLINS_21RefCountedStringValueENS_11ChannelArgs5ValueEED2Ev.exit

18:                                               ; preds = %11
  %19 = landingpad { ptr, i32 }
          cleanup
  %20 = load ptr, ptr %6, align 8, !tbaa !21
  %.not.i.i2 = icmp eq ptr %20, null
  br i1 %.not.i.i2, label %_ZN9grpc_core3AVLINS_21RefCountedStringValueENS_11ChannelArgs5ValueEED2Ev.exit3, label %21

21:                                               ; preds = %18
  %22 = atomicrmw sub ptr %20, i64 1 acq_rel, align 8
  %23 = icmp eq i64 %22, 1
  br i1 %23, label %24, label %_ZN9grpc_core3AVLINS_21RefCountedStringValueENS_11ChannelArgs5ValueEED2Ev.exit3, !prof !24

24:                                               ; preds = %21
  call void @_ZNK9grpc_core11UnrefDeleteclIKNS_3AVLINS_21RefCountedStringValueENS_11ChannelArgs5ValueEE4NodeEEEvPT_(ptr noundef nonnull align 8 dereferenceable(8) %20, ptr noundef nonnull align 8 dereferenceable(8) %20)
  br label %_ZN9grpc_core3AVLINS_21RefCountedStringValueENS_11ChannelArgs5ValueEED2Ev.exit3

_ZN9grpc_core3AVLINS_21RefCountedStringValueENS_11ChannelArgs5ValueEED2Ev.exit3: ; preds = %18, %21, %24
  resume { ptr, i32 } %19

_ZN9grpc_core3AVLINS_21RefCountedStringValueENS_11ChannelArgs5ValueEED2Ev.exit: ; preds = %17, %14, %12, %10
  ret void
}